; ModuleID = '54/650.c'
source_filename = "54/650.c"
target datalayout = "e-m:e-p270:32:32-p271:32:32-p272:64:64-i64:64-f80:128-n8:16:32:64-S128"
target triple = "x86_64-pc-linux-gnu"

@.str = private unnamed_addr constant [5 x i8] c"%d%d\00", align 1
@.str.1 = private unnamed_addr constant [5 x i8] c"%ld\0A\00", align 1

; Function Attrs: noinline nounwind uwtable
define dso_local void @main() #0 {
  %1 = alloca i32, align 4
  %2 = alloca i32, align 4
  %3 = alloca i32, align 4
  %4 = alloca i32, align 4
  %5 = alloca i32, align 4
  %6 = alloca i32, align 4
  %7 = alloca i32, align 4
  %8 = alloca i32, align 4
  %9 = alloca i64, align 8
  %10 = call i32 (i8*, ...) @__isoc99_scanf(i8* getelementptr inbounds ([5 x i8], [5 x i8]* @.str, i64 0, i64 0), i32* %3, i32* %4)
  store i64 0, i64* %9, align 8
  br label %11

11:                                               ; preds = %56, %0
  %12 = load i64, i64* %9, align 8
  %13 = icmp slt i64 %12, 100000000000000
  br i1 %13, label %14, label %59

14:                                               ; preds = %11
  %15 = load i64, i64* %9, align 8
  %16 = trunc i64 %15 to i32
  store i32 %16, i32* %7, align 4
  store i32 0, i32* %8, align 4
  store i32 0, i32* %5, align 4
  br label %17

17:                                               ; preds = %45, %14
  %18 = load i32, i32* %5, align 4
  %19 = load i32, i32* %3, align 4
  %20 = icmp slt i32 %18, %19
  br i1 %20, label %21, label %48

21:                                               ; preds = %17
  %22 = load i32, i32* %7, align 4
  %23 = load i32, i32* %4, align 4
  %24 = sub nsw i32 %22, %23
  %25 = load i32, i32* %3, align 4
  %26 = srem i32 %24, %25
  %27 = icmp eq i32 %26, 0
  br i1 %27, label %28, label %44

28:                                               ; preds = %21
  %29 = load i32, i32* %7, align 4
  %30 = load i32, i32* %4, align 4
  %31 = sub nsw i32 %29, %30
  %32 = icmp ne i32 %31, 0
  br i1 %32, label %33, label %44

33:                                               ; preds = %28
  %34 = load i32, i32* %7, align 4
  %35 = load i32, i32* %4, align 4
  %36 = sub nsw i32 %34, %35
  %37 = load i32, i32* %3, align 4
  %38 = sdiv i32 %36, %37
  %39 = load i32, i32* %3, align 4
  %40 = sub nsw i32 %39, 1
  %41 = mul nsw i32 %38, %40
  store i32 %41, i32* %7, align 4
  %42 = load i32, i32* %8, align 4
  %43 = add nsw i32 %42, 1
  store i32 %43, i32* %8, align 4
  br label %44

44:                                               ; preds = %33, %28, %21
  br label %45

45:                                               ; preds = %44
  %46 = load i32, i32* %5, align 4
  %47 = add nsw i32 %46, 1
  store i32 %47, i32* %5, align 4
  br label %17

48:                                               ; preds = %17
  %49 = load i32, i32* %8, align 4
  %50 = load i32, i32* %3, align 4
  %51 = icmp eq i32 %49, %50
  br i1 %51, label %52, label %55

52:                                               ; preds = %48
  %53 = load i64, i64* %9, align 8
  %54 = call i32 (i8*, ...) @printf(i8* getelementptr inbounds ([5 x i8], [5 x i8]* @.str.1, i64 0, i64 0), i64 %53)
  br label %59

55:                                               ; preds = %48
  br label %56

56:                                               ; preds = %55
  %57 = load i64, i64* %9, align 8
  %58 = add nsw i64 %57, 1
  store i64 %58, i64* %9, align 8
  br label %11

59:                                               ; preds = %52, %11
  ret void
}

declare dso_local i32 @__isoc99_scanf(i8*, ...) #1

declare dso_local i32 @printf(i8*, ...) #1


!llvm.module.flags = !{!0}
!llvm.ident = !{!1}

!0 = !{i32 1, !"wchar_size", i32 4}
!1 = !{!"clang version 10.0.0-4ubuntu1 "}
